; Function Attrs: mustprogress uwtable
define noundef zeroext i1 @_ZN3net13NullDecrypter17SetPreliminaryKeyEN4base16BasicStringPieceINSt7__cxx1112basic_stringIcSt11char_traitsIcESaIcEEEEE(ptr nonnull readnone align 8 captures(none) %0, ptr readnone captures(none) %1, i64 %2) unnamed_addr #2 align 2 personality ptr @__gxx_personality_v0 {
  %4 = alloca %"class.logging::LogMessage", align 8
  %5 = tail call noundef zeroext i1 @_ZN7logging22ShouldCreateLogMessageEi(i32 noundef 2)
  br i1 %5, label %6, label %.critedge6

6:                                                ; preds = %3
  call void @llvm.lifetime.start.p0(i64 408, ptr nonnull %4) #9
  call void @_ZN7logging10LogMessageC1EPKcii(ptr noundef nonnull align 8 dereferenceable(404) %4, ptr noundef nonnull @.str, i32 noundef 29, i32 noundef 2)
  %7 = getelementptr inbounds nuw i8, ptr %4, i64 8
  %8 = invoke noundef nonnull align 8 dereferenceable(8) ptr @_ZSt16__ostream_insertIcSt11char_traitsIcEERSt13basic_ostreamIT_T0_ES6_PKS3_l(ptr noundef nonnull align 8 dereferenceable(8) %7, ptr noundef nonnull @.str.1, i64 noundef 20)
          to label %.critedge unwind label %9

.critedge:                                        ; preds = %6
  call void @_ZN7logging10LogMessageD1Ev(ptr noundef nonnull align 8 dereferenceable(404) %4) #9
  call void @llvm.lifetime.end.p0(i64 408, ptr nonnull %4) #9
  br label %.critedge6

.critedge6:                                       ; preds = %3, %.critedge
  ret i1 false

9:                                                ; preds = %6
  %10 = landingpad { ptr, i32 }
          cleanup
  call void @_ZN7logging10LogMessageD1Ev(ptr noundef nonnull align 8 dereferenceable(404) %4) #9
  call void @llvm.lifetime.end.p0(i64 408, ptr nonnull %4) #9
  resume { ptr, i32 } %10
}